
screen.o：     文件格式 elf64-x86-64


Disassembly of section .text:

0000000000000000 <draw_rect>:
   0:	55                   	push   %rbp
   1:	48 89 e5             	mov    %rsp,%rbp
   4:	48 83 ec 30          	sub    $0x30,%rsp
   8:	89 7d ec             	mov    %edi,-0x14(%rbp)
   b:	89 75 e8             	mov    %esi,-0x18(%rbp)
   e:	89 55 e4             	mov    %edx,-0x1c(%rbp)
  11:	89 4d e0             	mov    %ecx,-0x20(%rbp)
  14:	44 89 45 dc          	mov    %r8d,-0x24(%rbp)
  18:	c7 45 f4 00 00 0a 00 	movl   $0xa0000,-0xc(%rbp)
  1f:	c7 45 f0 40 01 00 00 	movl   $0x140,-0x10(%rbp)
  26:	8b 45 e4             	mov    -0x1c(%rbp),%eax
  29:	89 45 fc             	mov    %eax,-0x4(%rbp)
  2c:	eb 35                	jmp    63 <draw_rect+0x63>
  2e:	8b 45 e8             	mov    -0x18(%rbp),%eax
  31:	89 45 f8             	mov    %eax,-0x8(%rbp)
  34:	eb 21                	jmp    57 <draw_rect+0x57>
  36:	8b 55 f4             	mov    -0xc(%rbp),%edx
  39:	8b 45 f8             	mov    -0x8(%rbp),%eax
  3c:	01 c2                	add    %eax,%edx
  3e:	8b 45 fc             	mov    -0x4(%rbp),%eax
  41:	0f af 45 f0          	imul   -0x10(%rbp),%eax
  45:	01 c2                	add    %eax,%edx
  47:	8b 45 ec             	mov    -0x14(%rbp),%eax
  4a:	89 c6                	mov    %eax,%esi
  4c:	89 d7                	mov    %edx,%edi
  4e:	e8 00 00 00 00       	callq  53 <draw_rect+0x53>
  53:	83 45 f8 01          	addl   $0x1,-0x8(%rbp)
  57:	8b 45 f8             	mov    -0x8(%rbp),%eax
  5a:	3b 45 e0             	cmp    -0x20(%rbp),%eax
  5d:	7e d7                	jle    36 <draw_rect+0x36>
  5f:	83 45 fc 01          	addl   $0x1,-0x4(%rbp)
  63:	8b 45 fc             	mov    -0x4(%rbp),%eax
  66:	3b 45 dc             	cmp    -0x24(%rbp),%eax
  69:	7e c3                	jle    2e <draw_rect+0x2e>
  6b:	90                   	nop
  6c:	c9                   	leaveq 
  6d:	c3                   	retq   

000000000000006e <draw_string>:
  6e:	55                   	push   %rbp
  6f:	48 89 e5             	mov    %rsp,%rbp
  72:	48 83 ec 20          	sub    $0x20,%rsp
  76:	48 89 7d f8          	mov    %rdi,-0x8(%rbp)
  7a:	89 75 f4             	mov    %esi,-0xc(%rbp)
  7d:	89 55 f0             	mov    %edx,-0x10(%rbp)
  80:	89 4d ec             	mov    %ecx,-0x14(%rbp)
  83:	eb 23                	jmp    a8 <draw_string+0x3a>
  85:	48 8b 45 f8          	mov    -0x8(%rbp),%rax
  89:	0f b6 00             	movzbl (%rax),%eax
  8c:	0f be c8             	movsbl %al,%ecx
  8f:	8b 55 f0             	mov    -0x10(%rbp),%edx
  92:	8b 75 f4             	mov    -0xc(%rbp),%esi
  95:	8b 45 ec             	mov    -0x14(%rbp),%eax
  98:	89 c7                	mov    %eax,%edi
  9a:	e8 00 00 00 00       	callq  9f <draw_string+0x31>
  9f:	83 45 f4 08          	addl   $0x8,-0xc(%rbp)
  a3:	48 83 45 f8 01       	addq   $0x1,-0x8(%rbp)
  a8:	48 8b 45 f8          	mov    -0x8(%rbp),%rax
  ac:	0f b6 00             	movzbl (%rax),%eax
  af:	84 c0                	test   %al,%al
  b1:	75 d2                	jne    85 <draw_string+0x17>
  b3:	90                   	nop
  b4:	c9                   	leaveq 
  b5:	c3                   	retq   

00000000000000b6 <draw_font>:
  b6:	55                   	push   %rbp
  b7:	48 89 e5             	mov    %rsp,%rbp
  ba:	48 83 ec 20          	sub    $0x20,%rsp
  be:	89 7d ec             	mov    %edi,-0x14(%rbp)
  c1:	89 75 e8             	mov    %esi,-0x18(%rbp)
  c4:	89 55 e4             	mov    %edx,-0x1c(%rbp)
  c7:	89 c8                	mov    %ecx,%eax
  c9:	88 45 e0             	mov    %al,-0x20(%rbp)
  cc:	c7 45 fc 00 00 00 00 	movl   $0x0,-0x4(%rbp)
  d3:	eb 61                	jmp    136 <draw_font+0x80>
  d5:	c7 45 f8 00 00 00 00 	movl   $0x0,-0x8(%rbp)
  dc:	eb 4e                	jmp    12c <draw_font+0x76>
  
  de:	8b 45 fc             	mov    -0x4(%rbp),%eax
  e1:	8d 14 c5 00 00 00 00 	lea    0x0(,%rax,8),%edx
  e8:	8b 45 f8             	mov    -0x8(%rbp),%eax
  eb:	01 d0                	add    %edx,%eax
  ed:	48 98                	cltq   
  ef:	0f b6 80 00 00 00 00 	movzbl 0x0(%rax),%eax
  f6:	3c 2a                	cmp    $0x2a,%al
  f8:	75 2e                	jne    128 <draw_font+0x72>

  fa:	8b 55 e8             	mov    -0x18(%rbp),%edx
  fd:	8b 45 fc             	mov    -0x4(%rbp),%eax
 100:	01 c2                	add    %eax,%edx
 102:	89 d0                	mov    %edx,%eax
 104:	c1 e0 02             	shl    $0x2,%eax
 107:	01 d0                	add    %edx,%eax
 109:	c1 e0 06             	shl    $0x6,%eax
 10c:	8d 90 00 00 0a 00    	lea    0xa0000(%rax),%edx
 112:	8b 45 ec             	mov    -0x14(%rbp),%eax
 115:	01 c2                	add    %eax,%edx
 117:	8b 45 f8             	mov    -0x8(%rbp),%eax
 11a:	01 c2                	add    %eax,%edx
 11c:	8b 45 e4             	mov    -0x1c(%rbp),%eax
 11f:	89 c6                	mov    %eax,%esi
 121:	89 d7                	mov    %edx,%edi
 123:	e8 00 00 00 00       	callq  128 <draw_font+0x72>
 128:	83 45 f8 01          	addl   $0x1,-0x8(%rbp)
 12c:	83 7d f8 07          	cmpl   $0x7,-0x8(%rbp)
 130:	7e ac                	jle    de <draw_font+0x28>
 132:	83 45 fc 01          	addl   $0x1,-0x4(%rbp)
 136:	83 7d fc 0f          	cmpl   $0xf,-0x4(%rbp)
 13a:	7e 99                	jle    d5 <draw_font+0x1f>
 13c:	90                   	nop
 13d:	c9                   	leaveq 
 13e:	c3                   	retq   

000000000000013f <init_palette>:
 13f:	55                   	push   %rbp
 140:	48 89 e5             	mov    %rsp,%rbp
 143:	ba 00 00 00 00       	mov    $0x0,%edx
 148:	be 0f 00 00 00       	mov    $0xf,%esi
 14d:	bf 00 00 00 00       	mov    $0x0,%edi
 152:	e8 00 00 00 00       	callq  157 <init_palette+0x18>
 157:	90                   	nop
 158:	5d                   	pop    %rbp
 159:	c3                   	retq   

000000000000015a <set_palette>:
 15a:	55                   	push   %rbp
 15b:	48 89 e5             	mov    %rsp,%rbp
 15e:	48 83 ec 20          	sub    $0x20,%rsp
 162:	89 7d ec             	mov    %edi,-0x14(%rbp)
 165:	89 75 e8             	mov    %esi,-0x18(%rbp)
 168:	48 89 55 e0          	mov    %rdx,-0x20(%rbp)
 16c:	b8 00 00 00 00       	mov    $0x0,%eax
 171:	e8 00 00 00 00       	callq  176 <set_palette+0x1c>
 176:	89 45 f8             	mov    %eax,-0x8(%rbp)
 179:	b8 00 00 00 00       	mov    $0x0,%eax
 17e:	e8 00 00 00 00       	callq  183 <set_palette+0x29>
 183:	8b 45 ec             	mov    -0x14(%rbp),%eax
 186:	89 c6                	mov    %eax,%esi
 188:	bf c8 03 00 00       	mov    $0x3c8,%edi
 18d:	e8 00 00 00 00       	callq  192 <set_palette+0x38>
 192:	8b 45 ec             	mov    -0x14(%rbp),%eax
 195:	89 45 fc             	mov    %eax,-0x4(%rbp)
 198:	eb 5c                	jmp    1f6 <set_palette+0x9c>
 19a:	48 8b 45 e0          	mov    -0x20(%rbp),%rax
 19e:	0f b6 00             	movzbl (%rax),%eax
 1a1:	c0 e8 04             	shr    $0x4,%al
 1a4:	0f b6 c0             	movzbl %al,%eax
 1a7:	89 c6                	mov    %eax,%esi
 1a9:	bf c9 03 00 00       	mov    $0x3c9,%edi
 1ae:	e8 00 00 00 00       	callq  1b3 <set_palette+0x59>
 1b3:	48 8b 45 e0          	mov    -0x20(%rbp),%rax
 1b7:	48 83 c0 01          	add    $0x1,%rax
 1bb:	0f b6 00             	movzbl (%rax),%eax
 1be:	c0 e8 04             	shr    $0x4,%al
 1c1:	0f b6 c0             	movzbl %al,%eax
 1c4:	89 c6                	mov    %eax,%esi
 1c6:	bf c9 03 00 00       	mov    $0x3c9,%edi
 1cb:	e8 00 00 00 00       	callq  1d0 <set_palette+0x76>
 1d0:	48 8b 45 e0          	mov    -0x20(%rbp),%rax
 1d4:	48 83 c0 02          	add    $0x2,%rax
 1d8:	0f b6 00             	movzbl (%rax),%eax
 1db:	c0 e8 04             	shr    $0x4,%al
 1de:	0f b6 c0             	movzbl %al,%eax
 1e1:	89 c6                	mov    %eax,%esi
 1e3:	bf c9 03 00 00       	mov    $0x3c9,%edi
 1e8:	e8 00 00 00 00       	callq  1ed <set_palette+0x93>
 1ed:	48 83 45 e0 03       	addq   $0x3,-0x20(%rbp)
 1f2:	83 45 fc 01          	addl   $0x1,-0x4(%rbp)
 1f6:	8b 45 fc             	mov    -0x4(%rbp),%eax
 1f9:	3b 45 e8             	cmp    -0x18(%rbp),%eax
 1fc:	7e 9c                	jle    19a <set_palette+0x40>
 1fe:	8b 45 f8             	mov    -0x8(%rbp),%eax
 201:	89 c7                	mov    %eax,%edi
 203:	e8 00 00 00 00       	callq  208 <set_palette+0xae>
 208:	90                   	nop
 209:	c9                   	leaveq 
 20a:	c3                   	retq   
